target datalayout = "e-m:e-p270:32:32-p271:32:32-p272:64:64-i64:64-i128:128-f80:128-n8:16:32:64-S128"
target triple = "x86_64-pc-linux-gnu"

%struct.strbuf = type { i64, i64, ptr }
%struct.git_graph = type { ptr, ptr, i32, i32, i32, i32, i32, i32, i32, i32, i32, i32, i32, i32, i32, i32, ptr, ptr, ptr, ptr, i16, %struct.strbuf }
%struct.column = type { ptr, i16 }
%struct.graph_line = type { ptr, i64 }

; Function Attrs: inlinehint nounwind uwtable
define internal i64 @strbuf_avail(ptr noundef %0) #4 {
  %2 = alloca ptr, align 8
  store ptr %0, ptr %2, align 8, !tbaa !123
  %3 = load ptr, ptr %2, align 8, !tbaa !123
  %4 = getelementptr inbounds nuw %struct.strbuf, ptr %3, i32 0, i32 0
  %5 = load i64, ptr %4, align 8, !tbaa !147
  %6 = icmp ne i64 %5, 0
  br i1 %6, label %7, label %16

7:                                                ; preds = %1
  %8 = load ptr, ptr %2, align 8, !tbaa !123
  %9 = getelementptr inbounds nuw %struct.strbuf, ptr %8, i32 0, i32 0
  %10 = load i64, ptr %9, align 8, !tbaa !147
  %11 = load ptr, ptr %2, align 8, !tbaa !123
  %12 = getelementptr inbounds nuw %struct.strbuf, ptr %11, i32 0, i32 1
  %13 = load i64, ptr %12, align 8, !tbaa !143
  %14 = sub i64 %10, %13
  %15 = sub i64 %14, 1
  br label %17

16:                                               ; preds = %1
  br label %17

17:                                               ; preds = %16, %7
  %18 = phi i64 [ %15, %7 ], [ 0, %16 ]
  ret i64 %18
}

; Function Attrs: inlinehint nounwind uwtable
define internal void @strbuf_addch(ptr noundef %0, i32 noundef %1) #4 {
  %3 = alloca ptr, align 8
  %4 = alloca i32, align 4
  store ptr %0, ptr %3, align 8, !tbaa !123
  store i32 %1, ptr %4, align 4, !tbaa !73
  %5 = load ptr, ptr %3, align 8, !tbaa !123
  %6 = call i64 @strbuf_avail(ptr noundef %5)
  %7 = icmp ne i64 %6, 0
  br i1 %7, label %10, label %8

8:                                                ; preds = %2
  %9 = load ptr, ptr %3, align 8, !tbaa !123
  call void @strbuf_grow(ptr noundef %9, i64 noundef 1)
  br label %10

10:                                               ; preds = %8, %2
  %11 = load i32, ptr %4, align 4, !tbaa !73
  %12 = trunc i32 %11 to i8
  %13 = load ptr, ptr %3, align 8, !tbaa !123
  %14 = getelementptr inbounds nuw %struct.strbuf, ptr %13, i32 0, i32 2
  %15 = load ptr, ptr %14, align 8, !tbaa !142
  %16 = load ptr, ptr %3, align 8, !tbaa !123
  %17 = getelementptr inbounds nuw %struct.strbuf, ptr %16, i32 0, i32 1
  %18 = load i64, ptr %17, align 8, !tbaa !143
  %19 = add i64 %18, 1
  store i64 %19, ptr %17, align 8, !tbaa !143
  %20 = getelementptr inbounds nuw i8, ptr %15, i64 %18
  store i8 %12, ptr %20, align 1, !tbaa !134
  %21 = load ptr, ptr %3, align 8, !tbaa !123
  %22 = getelementptr inbounds nuw %struct.strbuf, ptr %21, i32 0, i32 2
  %23 = load ptr, ptr %22, align 8, !tbaa !142
  %24 = load ptr, ptr %3, align 8, !tbaa !123
  %25 = getelementptr inbounds nuw %struct.strbuf, ptr %24, i32 0, i32 1
  %26 = load i64, ptr %25, align 8, !tbaa !143
  %27 = getelementptr inbounds nuw i8, ptr %23, i64 %26
  store i8 0, ptr %27, align 1, !tbaa !134
  ret void
}

; Function Attrs: nounwind uwtable
define internal void @graph_pad_horizontally(ptr noundef %0, ptr noundef %1) #0 {
  %3 = alloca ptr, align 8
  %4 = alloca ptr, align 8
  store ptr %0, ptr %3, align 8, !tbaa !28
  store ptr %1, ptr %4, align 8, !tbaa !128
  %5 = load ptr, ptr %4, align 8, !tbaa !128
  %6 = getelementptr inbounds nuw %struct.graph_line, ptr %5, i32 0, i32 1
  %7 = load i64, ptr %6, align 8, !tbaa !127
  %8 = load ptr, ptr %3, align 8, !tbaa !28
  %9 = getelementptr inbounds nuw %struct.git_graph, ptr %8, i32 0, i32 3
  %10 = load i32, ptr %9, align 4, !tbaa !117
  %11 = sext i32 %10 to i64
  %12 = icmp ult i64 %7, %11
  br i1 %12, label %13, label %23

13:                                               ; preds = %2
  %14 = load ptr, ptr %4, align 8, !tbaa !128
  %15 = load ptr, ptr %3, align 8, !tbaa !28
  %16 = getelementptr inbounds nuw %struct.git_graph, ptr %15, i32 0, i32 3
  %17 = load i32, ptr %16, align 4, !tbaa !117
  %18 = sext i32 %17 to i64
  %19 = load ptr, ptr %4, align 8, !tbaa !128
  %20 = getelementptr inbounds nuw %struct.graph_line, ptr %19, i32 0, i32 1
  %21 = load i64, ptr %20, align 8, !tbaa !127
  %22 = sub i64 %18, %21
  call void @graph_line_addchars(ptr noundef %14, i32 noundef 32, i64 noundef %22)
  br label %23

23:                                               ; preds = %13, %2
  ret void
}

; Function Attrs: inlinehint nounwind uwtable
define internal void @graph_line_addch(ptr noundef %0, i32 noundef %1) #4 {
  %3 = alloca ptr, align 8
  %4 = alloca i32, align 4
  store ptr %0, ptr %3, align 8, !tbaa !128
  store i32 %1, ptr %4, align 4, !tbaa !73
  %5 = load ptr, ptr %3, align 8, !tbaa !128
  %6 = getelementptr inbounds nuw %struct.graph_line, ptr %5, i32 0, i32 0
  %7 = load ptr, ptr %6, align 8, !tbaa !125
  %8 = load i32, ptr %4, align 4, !tbaa !73
  call void @strbuf_addch(ptr noundef %7, i32 noundef %8)
  %9 = load ptr, ptr %3, align 8, !tbaa !128
  %10 = getelementptr inbounds nuw %struct.graph_line, ptr %9, i32 0, i32 1
  %11 = load i64, ptr %10, align 8, !tbaa !127
  %12 = add i64 %11, 1
  store i64 %12, ptr %10, align 8, !tbaa !127
  ret void
}

; Function Attrs: inlinehint nounwind uwtable
define internal void @graph_line_addchars(ptr noundef %0, i32 noundef %1, i64 noundef %2) #4 {
  %4 = alloca ptr, align 8
  %5 = alloca i32, align 4
  %6 = alloca i64, align 8
  store ptr %0, ptr %4, align 8, !tbaa !128
  store i32 %1, ptr %5, align 4, !tbaa !73
  store i64 %2, ptr %6, align 8, !tbaa !103
  %7 = load ptr, ptr %4, align 8, !tbaa !128
  %8 = getelementptr inbounds nuw %struct.graph_line, ptr %7, i32 0, i32 0
  %9 = load ptr, ptr %8, align 8, !tbaa !125
  %10 = load i32, ptr %5, align 4, !tbaa !73
  %11 = load i64, ptr %6, align 8, !tbaa !103
  call void @strbuf_addchars(ptr noundef %9, i32 noundef %10, i64 noundef %11)
  %12 = load i64, ptr %6, align 8, !tbaa !103
  %13 = load ptr, ptr %4, align 8, !tbaa !128
  %14 = getelementptr inbounds nuw %struct.graph_line, ptr %13, i32 0, i32 1
  %15 = load i64, ptr %14, align 8, !tbaa !127
  %16 = add i64 %15, %12
  store i64 %16, ptr %14, align 8, !tbaa !127
  ret void
}

; Function Attrs: nounwind uwtable
define internal void @graph_padding_line(ptr noundef %0, ptr noundef %1) #0 {
  %3 = alloca ptr, align 8
  %4 = alloca ptr, align 8
  %5 = alloca i32, align 4
  %6 = alloca %struct.graph_line, align 8
  %7 = alloca i32, align 4
  %8 = alloca ptr, align 8
  %9 = alloca i32, align 4
  store ptr %0, ptr %3, align 8, !tbaa !28
  store ptr %1, ptr %4, align 8, !tbaa !123
  call void @llvm.lifetime.start.p0(i64 4, ptr %5) #8
  call void @llvm.lifetime.start.p0(i64 16, ptr %6) #8
  %10 = getelementptr inbounds nuw %struct.graph_line, ptr %6, i32 0, i32 0
  %11 = load ptr, ptr %4, align 8, !tbaa !123
  store ptr %11, ptr %10, align 8, !tbaa !125
  %12 = getelementptr inbounds nuw %struct.graph_line, ptr %6, i32 0, i32 1
  store i64 0, ptr %12, align 8, !tbaa !127
  %13 = load ptr, ptr %3, align 8, !tbaa !28
  %14 = getelementptr inbounds nuw %struct.git_graph, ptr %13, i32 0, i32 5
  %15 = load i32, ptr %14, align 4, !tbaa !81
  %16 = icmp ne i32 %15, 3
  br i1 %16, label %17, label %21

17:                                               ; preds = %2
  %18 = load ptr, ptr %3, align 8, !tbaa !28
  %19 = load ptr, ptr %4, align 8, !tbaa !123
  %20 = call i32 @graph_next_line(ptr noundef %18, ptr noundef %19)
  store i32 1, ptr %7, align 4
  br label %65

21:                                               ; preds = %2
  store i32 0, ptr %5, align 4, !tbaa !73
  br label %22

22:                                               ; preds = %58, %21
  %23 = load i32, ptr %5, align 4, !tbaa !73
  %24 = load ptr, ptr %3, align 8, !tbaa !28
  %25 = getelementptr inbounds nuw %struct.git_graph, ptr %24, i32 0, i32 13
  %26 = load i32, ptr %25, align 4, !tbaa !88
  %27 = icmp slt i32 %23, %26
  br i1 %27, label %28, label %61

28:                                               ; preds = %22
  call void @llvm.lifetime.start.p0(i64 8, ptr %8) #8
  %29 = load ptr, ptr %3, align 8, !tbaa !28
  %30 = getelementptr inbounds nuw %struct.git_graph, ptr %29, i32 0, i32 16
  %31 = load ptr, ptr %30, align 8, !tbaa !93
  %32 = load i32, ptr %5, align 4, !tbaa !73
  %33 = sext i32 %32 to i64
  %34 = getelementptr inbounds %struct.column, ptr %31, i64 %33
  store ptr %34, ptr %8, align 8, !tbaa !131
  %35 = load ptr, ptr %8, align 8, !tbaa !131
  call void @graph_line_write_column(ptr noundef %6, ptr noundef %35, i8 noundef signext 124)
  %36 = load ptr, ptr %8, align 8, !tbaa !131
  %37 = getelementptr inbounds nuw %struct.column, ptr %36, i32 0, i32 0
  %38 = load ptr, ptr %37, align 8, !tbaa !118
  %39 = load ptr, ptr %3, align 8, !tbaa !28
  %40 = getelementptr inbounds nuw %struct.git_graph, ptr %39, i32 0, i32 0
  %41 = load ptr, ptr %40, align 8, !tbaa !77
  %42 = icmp eq ptr %38, %41
  br i1 %42, label %43, label %56

43:                                               ; preds = %28
  %44 = load ptr, ptr %3, align 8, !tbaa !28
  %45 = getelementptr inbounds nuw %struct.git_graph, ptr %44, i32 0, i32 2
  %46 = load i32, ptr %45, align 8, !tbaa !79
  %47 = icmp sgt i32 %46, 2
  br i1 %47, label %48, label %56

48:                                               ; preds = %43
  call void @llvm.lifetime.start.p0(i64 4, ptr %9) #8
  %49 = load ptr, ptr %3, align 8, !tbaa !28
  %50 = getelementptr inbounds nuw %struct.git_graph, ptr %49, i32 0, i32 2
  %51 = load i32, ptr %50, align 8, !tbaa !79
  %52 = sub nsw i32 %51, 2
  %53 = mul nsw i32 %52, 2
  store i32 %53, ptr %9, align 4, !tbaa !73
  %54 = load i32, ptr %9, align 4, !tbaa !73
  %55 = sext i32 %54 to i64
  call void @graph_line_addchars(ptr noundef %6, i32 noundef 32, i64 noundef %55)
  call void @llvm.lifetime.end.p0(i64 4, ptr %9) #8
  br label %57

56:                                               ; preds = %43, %28
  call void @graph_line_addch(ptr noundef %6, i32 noundef 32)
  br label %57

57:                                               ; preds = %56, %48
  call void @llvm.lifetime.end.p0(i64 8, ptr %8) #8
  br label %58

58:                                               ; preds = %57
  %59 = load i32, ptr %5, align 4, !tbaa !73
  %60 = add nsw i32 %59, 1
  store i32 %60, ptr %5, align 4, !tbaa !73
  br label %22, !llvm.loop !148

61:                                               ; preds = %22
  %62 = load ptr, ptr %3, align 8, !tbaa !28
  call void @graph_pad_horizontally(ptr noundef %62, ptr noundef %6)
  %63 = load ptr, ptr %3, align 8, !tbaa !28
  %64 = getelementptr inbounds nuw %struct.git_graph, ptr %63, i32 0, i32 6
  store i32 0, ptr %64, align 8, !tbaa !82
  store i32 0, ptr %7, align 4
  br label %65

65:                                               ; preds = %61, %17
  call void @llvm.lifetime.end.p0(i64 16, ptr %6) #8
  call void @llvm.lifetime.end.p0(i64 4, ptr %5) #8
  %66 = load i32, ptr %7, align 4
  switch i32 %66, label %68 [
    i32 0, label %67
    i32 1, label %67
  ]

67:                                               ; preds = %65, %65
  ret void

68:                                               ; preds = %65
  unreachable
}