; Function Attrs: nounwind uwtable
define internal fastcc void @graph_padding_line(ptr noundef nonnull %0, ptr noundef nonnull %1) unnamed_addr #2 {
  %3 = alloca %struct.graph_line, align 8
  call void @llvm.lifetime.start.p0(i64 16, ptr nonnull %3) #15
  store ptr %1, ptr %3, align 8, !tbaa !122
  %4 = getelementptr inbounds nuw i8, ptr %3, i64 8
  store i64 0, ptr %4, align 8, !tbaa !125
  %5 = getelementptr inbounds nuw i8, ptr %0, i64 28
  %6 = load i32, ptr %5, align 4, !tbaa !121
  %.not = icmp eq i32 %6, 3
  br i1 %.not, label %.preheader, label %12

.preheader:                                       ; preds = %2
  %7 = getelementptr inbounds nuw i8, ptr %0, i64 60
  %8 = load i32, ptr %7, align 4, !tbaa !81
  %9 = icmp sgt i32 %8, 0
  br i1 %9, label %.lr.ph, label %._crit_edge

.lr.ph:                                           ; preds = %.preheader
  %10 = getelementptr inbounds nuw i8, ptr %0, i64 72
  %11 = getelementptr inbounds nuw i8, ptr %0, i64 16
  br label %14

12:                                               ; preds = %2
  %13 = tail call i32 @graph_next_line(ptr noundef nonnull %0, ptr noundef nonnull %1)
  br label %56

14:                                               ; preds = %.lr.ph, %41
  %indvars.iv = phi i64 [ 0, %.lr.ph ], [ %indvars.iv.next, %41 ]
  %15 = load ptr, ptr %10, align 8, !tbaa !86
  %16 = getelementptr inbounds nuw %struct.column, ptr %15, i64 %indvars.iv
  call fastcc void @graph_line_write_column(ptr noundef %3, ptr noundef %16, i8 noundef signext 124)
  %17 = load ptr, ptr %16, align 8, !tbaa !111
  %18 = load ptr, ptr %0, align 8, !tbaa !74
  %19 = icmp eq ptr %17, %18
  br i1 %19, label %20, label %28

20:                                               ; preds = %14
  %21 = load i32, ptr %11, align 8, !tbaa !80
  %22 = icmp sgt i32 %21, 2
  br i1 %22, label %23, label %28

23:                                               ; preds = %20
  %24 = shl nuw i32 %21, 1
  %25 = add i32 %24, -4
  %26 = zext nneg i32 %25 to i64
  %27 = load ptr, ptr %3, align 8, !tbaa !122
  tail call void @strbuf_addchars(ptr noundef %27, i32 noundef 32, i64 noundef %26) #15
  br label %41

28:                                               ; preds = %20, %14
  %29 = load ptr, ptr %3, align 8, !tbaa !122
  %30 = load i64, ptr %29, align 8, !tbaa !126
  %.not.i.i.i = icmp eq i64 %30, 0
  br i1 %.not.i.i.i, label %strbuf_avail.exit.thread.i.i, label %strbuf_avail.exit.i.i

strbuf_avail.exit.i.i:                            ; preds = %28
  %31 = getelementptr inbounds nuw i8, ptr %29, i64 8
  %32 = load i64, ptr %31, align 8, !tbaa !27
  %.neg.i.i = add i64 %32, 1
  %.not.i.i = icmp eq i64 %30, %.neg.i.i
  br i1 %.not.i.i, label %strbuf_avail.exit.thread.i.i, label %graph_line_addch.exit

strbuf_avail.exit.thread.i.i:                     ; preds = %strbuf_avail.exit.i.i, %28
  tail call void @strbuf_grow(ptr noundef nonnull %29, i64 noundef 1) #15
  %.phi.trans.insert.i.i = getelementptr inbounds nuw i8, ptr %29, i64 8
  %.pre.i.i = load i64, ptr %.phi.trans.insert.i.i, align 8, !tbaa !27
  %.pre7.i.i = add i64 %.pre.i.i, 1
  br label %graph_line_addch.exit

graph_line_addch.exit:                            ; preds = %strbuf_avail.exit.i.i, %strbuf_avail.exit.thread.i.i
  %.pre-phi.i.i = phi i64 [ %.pre7.i.i, %strbuf_avail.exit.thread.i.i ], [ %.neg.i.i, %strbuf_avail.exit.i.i ]
  %33 = phi i64 [ %.pre.i.i, %strbuf_avail.exit.thread.i.i ], [ %32, %strbuf_avail.exit.i.i ]
  %34 = getelementptr inbounds nuw i8, ptr %29, i64 16
  %35 = load ptr, ptr %34, align 8, !tbaa !29
  %36 = getelementptr inbounds nuw i8, ptr %29, i64 8
  store i64 %.pre-phi.i.i, ptr %36, align 8, !tbaa !27
  %37 = getelementptr inbounds nuw i8, ptr %35, i64 %33
  store i8 32, ptr %37, align 1, !tbaa !30
  %38 = load ptr, ptr %34, align 8, !tbaa !29
  %39 = load i64, ptr %36, align 8, !tbaa !27
  %40 = getelementptr inbounds nuw i8, ptr %38, i64 %39
  store i8 0, ptr %40, align 1, !tbaa !30
  br label %41

41:                                               ; preds = %graph_line_addch.exit, %23
  %.sink19 = phi i64 [ 1, %graph_line_addch.exit ], [ %26, %23 ]
  %42 = phi ptr [ %29, %graph_line_addch.exit ], [ %27, %23 ]
  %43 = load i64, ptr %4, align 8, !tbaa !125
  %44 = add i64 %43, %.sink19
  store i64 %44, ptr %4, align 8, !tbaa !125
  %indvars.iv.next = add nuw nsw i64 %indvars.iv, 1
  %45 = load i32, ptr %7, align 4, !tbaa !81
  %46 = sext i32 %45 to i64
  %47 = icmp slt i64 %indvars.iv.next, %46
  br i1 %47, label %14, label %._crit_edge, !llvm.loop !143

._crit_edge:                                      ; preds = %41, %.preheader
  %48 = phi ptr [ %1, %.preheader ], [ %42, %41 ]
  %49 = phi i64 [ 0, %.preheader ], [ %44, %41 ]
  %50 = getelementptr i8, ptr %0, i64 20
  %.val = load i32, ptr %50, align 4, !tbaa !106
  %51 = sext i32 %.val to i64
  %52 = icmp ult i64 %49, %51
  br i1 %52, label %53, label %graph_pad_horizontally.exit

53:                                               ; preds = %._crit_edge
  %54 = sub nuw i64 %51, %49
  tail call void @strbuf_addchars(ptr noundef %48, i32 noundef 32, i64 noundef %54) #15
  br label %graph_pad_horizontally.exit

graph_pad_horizontally.exit:                      ; preds = %._crit_edge, %53
  %55 = getelementptr inbounds nuw i8, ptr %0, i64 32
  store i32 0, ptr %55, align 8, !tbaa !128
  br label %56

56:                                               ; preds = %graph_pad_horizontally.exit, %12
  call void @llvm.lifetime.end.p0(i64 16, ptr nonnull %3) #15
  ret void
}